; Function Attrs: mustprogress uwtable
define void @_ZN32pxrInternal_v0_24__pxrReserved__17Usd_InstanceCache21_GetNextPrototypePathERKNS_15Usd_InstanceKeyE(ptr dead_on_unwind noalias writable sret(%"class.pxrInternal_v0_24__pxrReserved__::SdfPath") align 4 %0, ptr nocapture noundef nonnull align 8 dereferenceable(432) %1, ptr nocapture nonnull readnone align 8 %2) local_unnamed_addr #0 align 2 personality ptr @__gxx_personality_v0 {
  %4 = alloca %"class.pxrInternal_v0_24__pxrReserved__::TfToken", align 8
  %5 = alloca %"class.std::__cxx11::basic_string", align 8
  %6 = tail call noundef nonnull align 4 dereferenceable(8) ptr @_ZN32pxrInternal_v0_24__pxrReserved__7SdfPath16AbsoluteRootPathEv()
  %7 = getelementptr inbounds nuw i8, ptr %1, i64 424
  %8 = load i64, ptr %7, align 8
  %9 = add i64 %8, 1
  store i64 %9, ptr %7, align 8
  call void (ptr, ptr, ...) @_ZN32pxrInternal_v0_24__pxrReserved__14TfStringPrintfB5cxx11EPKcz(ptr dead_on_unwind nonnull writable sret(%"class.std::__cxx11::basic_string") align 8 %5, ptr noundef nonnull @.str.23, i64 noundef %9)
  invoke void @_ZN32pxrInternal_v0_24__pxrReserved__7TfTokenC1ERKNSt7__cxx1112basic_stringIcSt11char_traitsIcESaIcEEE(ptr noundef nonnull align 8 dereferenceable(8) %4, ptr noundef nonnull align 8 dereferenceable(32) %5)
          to label %10 unwind label %19

10:                                               ; preds = %3
  invoke void @_ZNK32pxrInternal_v0_24__pxrReserved__7SdfPath11AppendChildERKNS_7TfTokenE(ptr dead_on_unwind writable sret(%"class.pxrInternal_v0_24__pxrReserved__::SdfPath") align 4 %0, ptr noundef nonnull align 4 dereferenceable(8) %6, ptr noundef nonnull align 8 dereferenceable(8) %4)
          to label %11 unwind label %21

11:                                               ; preds = %10
  %12 = load ptr, ptr %4, align 8
  %13 = ptrtoint ptr %12 to i64
  %14 = and i64 %13, 7
  %.not.i.i = icmp eq i64 %14, 0
  br i1 %.not.i.i, label %_ZN32pxrInternal_v0_24__pxrReserved__7TfTokenD2Ev.exit, label %15

15:                                               ; preds = %11
  %16 = and i64 %13, -8
  %17 = inttoptr i64 %16 to ptr
  %18 = atomicrmw sub ptr %17, i32 2 release, align 4
  br label %_ZN32pxrInternal_v0_24__pxrReserved__7TfTokenD2Ev.exit

_ZN32pxrInternal_v0_24__pxrReserved__7TfTokenD2Ev.exit: ; preds = %11, %15
  call void @_ZNSt7__cxx1112basic_stringIcSt11char_traitsIcESaIcEED1Ev(ptr noundef nonnull align 8 dereferenceable(32) %5) #16
  ret void

19:                                               ; preds = %3
  %20 = landingpad { ptr, i32 }
          cleanup
  br label %_ZN32pxrInternal_v0_24__pxrReserved__7TfTokenD2Ev.exit5

21:                                               ; preds = %10
  %22 = landingpad { ptr, i32 }
          cleanup
  %23 = load ptr, ptr %4, align 8
  %24 = ptrtoint ptr %23 to i64
  %25 = and i64 %24, 7
  %.not.i.i4 = icmp eq i64 %25, 0
  br i1 %.not.i.i4, label %_ZN32pxrInternal_v0_24__pxrReserved__7TfTokenD2Ev.exit5, label %26

26:                                               ; preds = %21
  %27 = and i64 %24, -8
  %28 = inttoptr i64 %27 to ptr
  %29 = atomicrmw sub ptr %28, i32 2 release, align 4
  br label %_ZN32pxrInternal_v0_24__pxrReserved__7TfTokenD2Ev.exit5

_ZN32pxrInternal_v0_24__pxrReserved__7TfTokenD2Ev.exit5: ; preds = %26, %21, %19
  %.pn = phi { ptr, i32 } [ %20, %19 ], [ %22, %21 ], [ %22, %26 ]
  call void @_ZNSt7__cxx1112basic_stringIcSt11char_traitsIcESaIcEED1Ev(ptr noundef nonnull align 8 dereferenceable(32) %5) #16
  resume { ptr, i32 } %.pn
}